target datalayout = "e-m:e-p270:32:32-p271:32:32-p272:64:64-i64:64-i128:128-f80:128-n8:16:32:64-S128"
target triple = "x86_64-pc-linux-gnu"

%struct.nghttp2_session = type { %struct.nghttp2_map, %struct.nghttp2_stream, %struct.nghttp2_outbound_queue, %struct.nghttp2_outbound_queue, %struct.nghttp2_outbound_queue, [8 x %struct.anon], %struct.nghttp2_active_outbound_item, %struct.nghttp2_inbound_frame, %struct.nghttp2_hd_deflater, %struct.nghttp2_hd_inflater, %struct.nghttp2_session_callbacks, %struct.nghttp2_mem, ptr, ptr, ptr, ptr, ptr, ptr, i64, i64, i64, i64, i64, i64, i64, i64, i64, i64, i64, i64, i32, i32, i32, i32, i32, i32, i32, i32, i32, i32, i32, i32, i8, %struct.nghttp2_settings_storage, %struct.nghttp2_settings_storage, i32, i32, i32, i8, i8, i8, i8, i8, i8, i8, [32 x i8] }
%struct.nghttp2_map = type { ptr, ptr, i64, i32, i32 }
%struct.nghttp2_stream = type { %struct.nghttp2_pq_entry, %struct.nghttp2_pq, i64, i64, i64, i64, i64, i64, ptr, ptr, ptr, ptr, ptr, ptr, ptr, ptr, i64, i32, i32, i32, i32, i32, i32, i32, i32, i32, i32, i16, i32, i8, i8, i8, i8, i8, i8 }
%struct.nghttp2_pq_entry = type { i64 }
%struct.nghttp2_pq = type { ptr, ptr, i64, i64, ptr }
%struct.nghttp2_outbound_queue = type { ptr, ptr, i64 }
%struct.anon = type { %struct.nghttp2_pq }
%struct.nghttp2_active_outbound_item = type { ptr, %struct.nghttp2_bufs, i32 }
%struct.nghttp2_bufs = type { ptr, ptr, ptr, i64, i64, i64, i64, i64 }
%struct.nghttp2_inbound_frame = type { %union.nghttp2_frame, %union.nghttp2_ext_frame_payload, ptr, %struct.nghttp2_buf, %struct.nghttp2_buf, ptr, i64, i64, i64, i64, i32, [32 x i8] }
%union.nghttp2_frame = type { %struct.nghttp2_headers }
%struct.nghttp2_headers = type { %struct.nghttp2_frame_hd, i64, %struct.nghttp2_priority_spec, ptr, i64, i32 }
%struct.nghttp2_frame_hd = type { i64, i32, i8, i8, i8 }
%struct.nghttp2_priority_spec = type { i32, i32, i8 }
%union.nghttp2_ext_frame_payload = type { %struct.nghttp2_ext_altsvc }
%struct.nghttp2_ext_altsvc = type { ptr, i64, ptr, i64 }
%struct.nghttp2_buf = type { ptr, ptr, ptr, ptr, ptr }
%struct.nghttp2_hd_deflater = type { %struct.nghttp2_hd_context, %struct.nghttp2_hd_map, i64, i64, i8 }
%struct.nghttp2_hd_context = type { %struct.nghttp2_hd_ringbuf, ptr, i64, i64, i32, i8 }
%struct.nghttp2_hd_ringbuf = type { ptr, i64, i64, i64 }
%struct.nghttp2_hd_map = type { [128 x ptr] }
%struct.nghttp2_hd_inflater = type { %struct.nghttp2_hd_context, %struct.nghttp2_hd_huff_decode_context, %struct.nghttp2_buf, %struct.nghttp2_buf, ptr, ptr, ptr, ptr, i64, i64, i64, i64, i64, i32, i32, i8, i8, i8 }
%struct.nghttp2_hd_huff_decode_context = type { i16 }
%struct.nghttp2_session_callbacks = type { ptr, ptr, ptr, ptr, ptr, ptr, ptr, ptr, ptr, ptr, ptr, ptr, ptr, ptr, ptr, ptr, ptr, ptr, ptr, ptr, ptr, ptr, ptr }
%struct.nghttp2_mem = type { ptr, ptr, ptr, ptr, ptr }
%struct.nghttp2_settings_storage = type { i32, i32, i32, i32, i32, i32, i32, i32 }
%struct.nghttp2_inflight_settings = type { ptr, ptr, i64 }
%struct.nghttp2_outbound_item = type { %union.nghttp2_frame, %union.nghttp2_ext_frame_payload, %union.nghttp2_aux_data, i64, ptr, i8 }
%union.nghttp2_aux_data = type { %struct.nghttp2_headers_aux_data }
%struct.nghttp2_headers_aux_data = type { %struct.nghttp2_data_provider, ptr, i32, i8 }
%struct.nghttp2_data_provider = type { %union.nghttp2_data_source, ptr }
%union.nghttp2_data_source = type { ptr }

; Function Attrs: nounwind uwtable
define internal void @active_outbound_item_reset(ptr noundef %0, ptr noundef %1) #0 {
  %3 = alloca ptr, align 8
  %4 = alloca ptr, align 8
  store ptr %0, ptr %3, align 8, !tbaa !53
  store ptr %1, ptr %4, align 8, !tbaa !53
  br label %5

5:                                                ; preds = %2
  br label %6

6:                                                ; preds = %5
  br label %7

7:                                                ; preds = %6
  br label %8

8:                                                ; preds = %7
  %9 = load ptr, ptr %3, align 8, !tbaa !53
  %10 = getelementptr inbounds nuw %struct.nghttp2_active_outbound_item, ptr %9, i32 0, i32 0
  %11 = load ptr, ptr %10, align 8, !tbaa !113
  %12 = load ptr, ptr %4, align 8, !tbaa !53
  call void @nghttp2_outbound_item_free(ptr noundef %11, ptr noundef %12)
  %13 = load ptr, ptr %4, align 8, !tbaa !53
  %14 = load ptr, ptr %3, align 8, !tbaa !53
  %15 = getelementptr inbounds nuw %struct.nghttp2_active_outbound_item, ptr %14, i32 0, i32 0
  %16 = load ptr, ptr %15, align 8, !tbaa !113
  call void @nghttp2_mem_free(ptr noundef %13, ptr noundef %16)
  %17 = load ptr, ptr %3, align 8, !tbaa !53
  %18 = getelementptr inbounds nuw %struct.nghttp2_active_outbound_item, ptr %17, i32 0, i32 0
  store ptr null, ptr %18, align 8, !tbaa !113
  %19 = load ptr, ptr %3, align 8, !tbaa !53
  %20 = getelementptr inbounds nuw %struct.nghttp2_active_outbound_item, ptr %19, i32 0, i32 1
  call void @nghttp2_bufs_reset(ptr noundef %20)
  %21 = load ptr, ptr %3, align 8, !tbaa !53
  %22 = getelementptr inbounds nuw %struct.nghttp2_active_outbound_item, ptr %21, i32 0, i32 2
  store i32 0, ptr %22, align 8, !tbaa !114
  ret void
}

; Function Attrs: nounwind uwtable
define internal void @ob_q_free(ptr noundef %0, ptr noundef %1) #0 {
  %3 = alloca ptr, align 8
  %4 = alloca ptr, align 8
  %5 = alloca ptr, align 8
  %6 = alloca ptr, align 8
  store ptr %0, ptr %3, align 8, !tbaa !53
  store ptr %1, ptr %4, align 8, !tbaa !53
  call void @llvm.lifetime.start.p0(i64 8, ptr %5) #9
  call void @llvm.lifetime.start.p0(i64 8, ptr %6) #9
  %7 = load ptr, ptr %3, align 8, !tbaa !53
  %8 = getelementptr inbounds nuw %struct.nghttp2_outbound_queue, ptr %7, i32 0, i32 0
  %9 = load ptr, ptr %8, align 8, !tbaa !110
  store ptr %9, ptr %5, align 8, !tbaa !106
  br label %10

10:                                               ; preds = %13, %2
  %11 = load ptr, ptr %5, align 8, !tbaa !106
  %12 = icmp ne ptr %11, null
  br i1 %12, label %13, label %22

13:                                               ; preds = %10
  %14 = load ptr, ptr %5, align 8, !tbaa !106
  %15 = getelementptr inbounds nuw %struct.nghttp2_outbound_item, ptr %14, i32 0, i32 4
  %16 = load ptr, ptr %15, align 8, !tbaa !111
  store ptr %16, ptr %6, align 8, !tbaa !106
  %17 = load ptr, ptr %5, align 8, !tbaa !106
  %18 = load ptr, ptr %4, align 8, !tbaa !53
  call void @nghttp2_outbound_item_free(ptr noundef %17, ptr noundef %18)
  %19 = load ptr, ptr %4, align 8, !tbaa !53
  %20 = load ptr, ptr %5, align 8, !tbaa !106
  call void @nghttp2_mem_free(ptr noundef %19, ptr noundef %20)
  %21 = load ptr, ptr %6, align 8, !tbaa !106
  store ptr %21, ptr %5, align 8, !tbaa !106
  br label %10, !llvm.loop !112

22:                                               ; preds = %10
  call void @llvm.lifetime.end.p0(i64 8, ptr %6) #9
  call void @llvm.lifetime.end.p0(i64 8, ptr %5) #9
  ret void
}

; Function Attrs: nounwind uwtable
define internal void @inflight_settings_del(ptr noundef %0, ptr noundef %1) #0 {
  %3 = alloca ptr, align 8
  %4 = alloca ptr, align 8
  store ptr %0, ptr %3, align 8, !tbaa !99
  store ptr %1, ptr %4, align 8, !tbaa !53
  %5 = load ptr, ptr %3, align 8, !tbaa !99
  %6 = icmp ne ptr %5, null
  br i1 %6, label %8, label %7

7:                                                ; preds = %2
  br label %15

8:                                                ; preds = %2
  %9 = load ptr, ptr %4, align 8, !tbaa !53
  %10 = load ptr, ptr %3, align 8, !tbaa !99
  %11 = getelementptr inbounds nuw %struct.nghttp2_inflight_settings, ptr %10, i32 0, i32 1
  %12 = load ptr, ptr %11, align 8, !tbaa !104
  call void @nghttp2_mem_free(ptr noundef %9, ptr noundef %12)
  %13 = load ptr, ptr %4, align 8, !tbaa !53
  %14 = load ptr, ptr %3, align 8, !tbaa !99
  call void @nghttp2_mem_free(ptr noundef %13, ptr noundef %14)
  br label %15

15:                                               ; preds = %8, %7
  ret void
}

; Function Attrs: nounwind uwtable
define dso_local void @nghttp2_session_del(ptr noundef %0) #0 {
  %2 = alloca ptr, align 8
  %3 = alloca ptr, align 8
  %4 = alloca ptr, align 8
  %5 = alloca i64, align 8
  %6 = alloca i32, align 4
  %7 = alloca ptr, align 8
  store ptr %0, ptr %2, align 8, !tbaa !8
  call void @llvm.lifetime.start.p0(i64 8, ptr %3) #9
  call void @llvm.lifetime.start.p0(i64 8, ptr %4) #9
  call void @llvm.lifetime.start.p0(i64 8, ptr %5) #9
  %8 = load ptr, ptr %2, align 8, !tbaa !8
  %9 = icmp eq ptr %8, null
  br i1 %9, label %10, label %11

10:                                               ; preds = %1
  store i32 1, ptr %6, align 4
  br label %70

11:                                               ; preds = %1
  %12 = load ptr, ptr %2, align 8, !tbaa !8
  %13 = getelementptr inbounds nuw %struct.nghttp2_session, ptr %12, i32 0, i32 11
  store ptr %13, ptr %3, align 8, !tbaa !53
  %14 = load ptr, ptr %2, align 8, !tbaa !8
  %15 = getelementptr inbounds nuw %struct.nghttp2_session, ptr %14, i32 0, i32 17
  %16 = load ptr, ptr %15, align 8, !tbaa !98
  store ptr %16, ptr %4, align 8, !tbaa !99
  br label %17

17:                                               ; preds = %20, %11
  %18 = load ptr, ptr %4, align 8, !tbaa !99
  %19 = icmp ne ptr %18, null
  br i1 %19, label %20, label %27

20:                                               ; preds = %17
  call void @llvm.lifetime.start.p0(i64 8, ptr %7) #9
  %21 = load ptr, ptr %4, align 8, !tbaa !99
  %22 = getelementptr inbounds nuw %struct.nghttp2_inflight_settings, ptr %21, i32 0, i32 0
  %23 = load ptr, ptr %22, align 8, !tbaa !100
  store ptr %23, ptr %7, align 8, !tbaa !99
  %24 = load ptr, ptr %4, align 8, !tbaa !99
  %25 = load ptr, ptr %3, align 8, !tbaa !53
  call void @inflight_settings_del(ptr noundef %24, ptr noundef %25)
  %26 = load ptr, ptr %7, align 8, !tbaa !99
  store ptr %26, ptr %4, align 8, !tbaa !99
  call void @llvm.lifetime.end.p0(i64 8, ptr %7) #9
  br label %17, !llvm.loop !102

27:                                               ; preds = %17
  store i64 0, ptr %5, align 8, !tbaa !44
  br label %28

28:                                               ; preds = %37, %27
  %29 = load i64, ptr %5, align 8, !tbaa !44
  %30 = icmp ult i64 %29, 8
  br i1 %30, label %31, label %40

31:                                               ; preds = %28
  %32 = load ptr, ptr %2, align 8, !tbaa !8
  %33 = getelementptr inbounds nuw %struct.nghttp2_session, ptr %32, i32 0, i32 5
  %34 = load i64, ptr %5, align 8, !tbaa !44
  %35 = getelementptr inbounds nuw [8 x %struct.anon], ptr %33, i64 0, i64 %34
  %36 = getelementptr inbounds nuw %struct.anon, ptr %35, i32 0, i32 0
  call void @nghttp2_pq_free(ptr noundef %36)
  br label %37

37:                                               ; preds = %31
  %38 = load i64, ptr %5, align 8, !tbaa !44
  %39 = add i64 %38, 1
  store i64 %39, ptr %5, align 8, !tbaa !44
  br label %28, !llvm.loop !103

40:                                               ; preds = %28
  %41 = load ptr, ptr %2, align 8, !tbaa !8
  %42 = getelementptr inbounds nuw %struct.nghttp2_session, ptr %41, i32 0, i32 1
  call void @nghttp2_stream_free(ptr noundef %42)
  %43 = load ptr, ptr %2, align 8, !tbaa !8
  %44 = getelementptr inbounds nuw %struct.nghttp2_session, ptr %43, i32 0, i32 0
  %45 = load ptr, ptr %2, align 8, !tbaa !8
  call void @nghttp2_map_each_free(ptr noundef %44, ptr noundef @free_streams, ptr noundef %45)
  %46 = load ptr, ptr %2, align 8, !tbaa !8
  %47 = getelementptr inbounds nuw %struct.nghttp2_session, ptr %46, i32 0, i32 0
  call void @nghttp2_map_free(ptr noundef %47)
  %48 = load ptr, ptr %2, align 8, !tbaa !8
  %49 = getelementptr inbounds nuw %struct.nghttp2_session, ptr %48, i32 0, i32 2
  %50 = load ptr, ptr %3, align 8, !tbaa !53
  call void @ob_q_free(ptr noundef %49, ptr noundef %50)
  %51 = load ptr, ptr %2, align 8, !tbaa !8
  %52 = getelementptr inbounds nuw %struct.nghttp2_session, ptr %51, i32 0, i32 3
  %53 = load ptr, ptr %3, align 8, !tbaa !53
  call void @ob_q_free(ptr noundef %52, ptr noundef %53)
  %54 = load ptr, ptr %2, align 8, !tbaa !8
  %55 = getelementptr inbounds nuw %struct.nghttp2_session, ptr %54, i32 0, i32 4
  %56 = load ptr, ptr %3, align 8, !tbaa !53
  call void @ob_q_free(ptr noundef %55, ptr noundef %56)
  %57 = load ptr, ptr %2, align 8, !tbaa !8
  %58 = getelementptr inbounds nuw %struct.nghttp2_session, ptr %57, i32 0, i32 6
  %59 = load ptr, ptr %3, align 8, !tbaa !53
  call void @active_outbound_item_reset(ptr noundef %58, ptr noundef %59)
  %60 = load ptr, ptr %2, align 8, !tbaa !8
  call void @session_inbound_frame_reset(ptr noundef %60)
  %61 = load ptr, ptr %2, align 8, !tbaa !8
  %62 = getelementptr inbounds nuw %struct.nghttp2_session, ptr %61, i32 0, i32 8
  call void @nghttp2_hd_deflate_free(ptr noundef %62)
  %63 = load ptr, ptr %2, align 8, !tbaa !8
  %64 = getelementptr inbounds nuw %struct.nghttp2_session, ptr %63, i32 0, i32 9
  call void @nghttp2_hd_inflate_free(ptr noundef %64)
  %65 = load ptr, ptr %2, align 8, !tbaa !8
  %66 = getelementptr inbounds nuw %struct.nghttp2_session, ptr %65, i32 0, i32 6
  %67 = getelementptr inbounds nuw %struct.nghttp2_active_outbound_item, ptr %66, i32 0, i32 1
  call void @nghttp2_bufs_free(ptr noundef %67)
  %68 = load ptr, ptr %3, align 8, !tbaa !53
  %69 = load ptr, ptr %2, align 8, !tbaa !8
  call void @nghttp2_mem_free(ptr noundef %68, ptr noundef %69)
  store i32 0, ptr %6, align 4
  br label %70

70:                                               ; preds = %40, %10
  call void @llvm.lifetime.end.p0(i64 8, ptr %5) #9
  call void @llvm.lifetime.end.p0(i64 8, ptr %4) #9
  call void @llvm.lifetime.end.p0(i64 8, ptr %3) #9
  %71 = load i32, ptr %6, align 4
  switch i32 %71, label %73 [
    i32 0, label %72
    i32 1, label %72
  ]

72:                                               ; preds = %70, %70
  ret void

73:                                               ; preds = %70
  unreachable
}