; Function Attrs: nounwind uwtable
define dso_local void @nghttp2_session_del(ptr noundef %0) local_unnamed_addr #1 {
  %2 = icmp eq ptr %0, null
  br i1 %2, label %32, label %3

3:                                                ; preds = %1
  %4 = getelementptr inbounds nuw i8, ptr %0, i64 2528
  %5 = getelementptr inbounds nuw i8, ptr %0, i64 2608
  %6 = load ptr, ptr %5, align 8, !tbaa !96
  %.not44 = icmp eq ptr %6, null
  br i1 %.not44, label %.preheader, label %inflight_settings_del.exit

.preheader:                                       ; preds = %inflight_settings_del.exit, %3
  %7 = getelementptr inbounds nuw i8, ptr %0, i64 328
  br label %11

inflight_settings_del.exit:                       ; preds = %3, %inflight_settings_del.exit
  %.045 = phi ptr [ %8, %inflight_settings_del.exit ], [ %6, %3 ]
  %8 = load ptr, ptr %.045, align 8, !tbaa !97
  %9 = getelementptr inbounds nuw i8, ptr %.045, i64 8
  %10 = load ptr, ptr %9, align 8, !tbaa !99
  tail call void @nghttp2_mem_free(ptr noundef nonnull %4, ptr noundef %10) #20
  tail call void @nghttp2_mem_free(ptr noundef nonnull %4, ptr noundef nonnull %.045) #20
  %.not = icmp eq ptr %8, null
  br i1 %.not, label %.preheader, label %inflight_settings_del.exit, !llvm.loop !100

11:                                               ; preds = %.preheader, %11
  %.02946 = phi i64 [ 0, %.preheader ], [ %13, %11 ]
  %12 = getelementptr inbounds nuw [8 x %struct.anon], ptr %7, i64 0, i64 %.02946
  tail call void @nghttp2_pq_free(ptr noundef nonnull %12) #20
  %13 = add nuw nsw i64 %.02946, 1
  %exitcond.not = icmp eq i64 %13, 8
  br i1 %exitcond.not, label %14, label %11, !llvm.loop !101

14:                                               ; preds = %11
  %15 = getelementptr inbounds nuw i8, ptr %0, i64 32
  tail call void @nghttp2_stream_free(ptr noundef nonnull %15) #20
  tail call void @nghttp2_map_each_free(ptr noundef nonnull %0, ptr noundef nonnull @free_streams, ptr noundef nonnull %0) #20
  tail call void @nghttp2_map_free(ptr noundef nonnull %0) #20
  %16 = getelementptr inbounds nuw i8, ptr %0, i64 256
  %.val = load ptr, ptr %16, align 8, !tbaa !102
  %.not1.i = icmp eq ptr %.val, null
  br i1 %.not1.i, label %ob_q_free.exit, label %.lr.ph.i

.lr.ph.i:                                         ; preds = %14, %.lr.ph.i
  %.02.i = phi ptr [ %18, %.lr.ph.i ], [ %.val, %14 ]
  %17 = getelementptr inbounds nuw i8, ptr %.02.i, i64 136
  %18 = load ptr, ptr %17, align 8, !tbaa !103
  tail call void @nghttp2_outbound_item_free(ptr noundef nonnull %.02.i, ptr noundef nonnull %4) #20
  tail call void @nghttp2_mem_free(ptr noundef nonnull %4, ptr noundef nonnull %.02.i) #20
  %.not.i33 = icmp eq ptr %18, null
  br i1 %.not.i33, label %ob_q_free.exit, label %.lr.ph.i, !llvm.loop !105

ob_q_free.exit:                                   ; preds = %.lr.ph.i, %14
  %19 = getelementptr inbounds nuw i8, ptr %0, i64 280
  %.val31 = load ptr, ptr %19, align 8, !tbaa !102
  %.not1.i34 = icmp eq ptr %.val31, null
  br i1 %.not1.i34, label %ob_q_free.exit38, label %.lr.ph.i35

.lr.ph.i35:                                       ; preds = %ob_q_free.exit, %.lr.ph.i35
  %.02.i36 = phi ptr [ %21, %.lr.ph.i35 ], [ %.val31, %ob_q_free.exit ]
  %20 = getelementptr inbounds nuw i8, ptr %.02.i36, i64 136
  %21 = load ptr, ptr %20, align 8, !tbaa !103
  tail call void @nghttp2_outbound_item_free(ptr noundef nonnull %.02.i36, ptr noundef nonnull %4) #20
  tail call void @nghttp2_mem_free(ptr noundef nonnull %4, ptr noundef nonnull %.02.i36) #20
  %.not.i37 = icmp eq ptr %21, null
  br i1 %.not.i37, label %ob_q_free.exit38, label %.lr.ph.i35, !llvm.loop !105

ob_q_free.exit38:                                 ; preds = %.lr.ph.i35, %ob_q_free.exit
  %22 = getelementptr inbounds nuw i8, ptr %0, i64 304
  %.val32 = load ptr, ptr %22, align 8, !tbaa !102
  %.not1.i39 = icmp eq ptr %.val32, null
  br i1 %.not1.i39, label %ob_q_free.exit43, label %.lr.ph.i40

.lr.ph.i40:                                       ; preds = %ob_q_free.exit38, %.lr.ph.i40
  %.02.i41 = phi ptr [ %24, %.lr.ph.i40 ], [ %.val32, %ob_q_free.exit38 ]
  %23 = getelementptr inbounds nuw i8, ptr %.02.i41, i64 136
  %24 = load ptr, ptr %23, align 8, !tbaa !103
  tail call void @nghttp2_outbound_item_free(ptr noundef nonnull %.02.i41, ptr noundef nonnull %4) #20
  tail call void @nghttp2_mem_free(ptr noundef nonnull %4, ptr noundef nonnull %.02.i41) #20
  %.not.i42 = icmp eq ptr %24, null
  br i1 %.not.i42, label %ob_q_free.exit43, label %.lr.ph.i40, !llvm.loop !105

ob_q_free.exit43:                                 ; preds = %.lr.ph.i40, %ob_q_free.exit38
  %25 = getelementptr inbounds nuw i8, ptr %0, i64 648
  %26 = load ptr, ptr %25, align 8, !tbaa !106
  tail call void @nghttp2_outbound_item_free(ptr noundef %26, ptr noundef nonnull %4) #20
  %27 = load ptr, ptr %25, align 8, !tbaa !106
  tail call void @nghttp2_mem_free(ptr noundef nonnull %4, ptr noundef %27) #20
  store ptr null, ptr %25, align 8, !tbaa !106
  %28 = getelementptr inbounds nuw i8, ptr %0, i64 656
  tail call void @nghttp2_bufs_reset(ptr noundef nonnull %28) #20
  %29 = getelementptr inbounds nuw i8, ptr %0, i64 720
  store i32 0, ptr %29, align 8, !tbaa !107
  tail call fastcc void @session_inbound_frame_reset(ptr noundef nonnull %0)
  %30 = getelementptr inbounds nuw i8, ptr %0, i64 992
  tail call void @nghttp2_hd_deflate_free(ptr noundef nonnull %30) #20
  %31 = getelementptr inbounds nuw i8, ptr %0, i64 2104
  tail call void @nghttp2_hd_inflate_free(ptr noundef nonnull %31) #20
  tail call void @nghttp2_bufs_free(ptr noundef nonnull %28) #20
  tail call void @nghttp2_mem_free(ptr noundef nonnull %4, ptr noundef nonnull %0) #20
  br label %32

32:                                               ; preds = %1, %ob_q_free.exit43
  ret void
}